target datalayout = "e-m:e-p270:32:32-p271:32:32-p272:64:64-i64:64-i128:128-f80:128-n8:16:32:64-S128"
target triple = "x86_64-pc-linux-gnu"

%"class.icu_77::RegexMatcher" = type { %"class.icu_77::UObject", ptr, ptr, ptr, ptr, ptr, i64, i32, i64, i64, i64, i64, i64, i64, i64, i64, i8, i8, i8, i64, i64, i64, i64, i8, i8, ptr, ptr, ptr, [8 x i64], i32, i32, i32, i32, ptr, ptr, ptr, ptr, i8, i8, i32, ptr, ptr }
%"class.icu_77::UObject" = type { ptr }
%"class.icu_77::UnicodeString" = type { %"class.icu_77::Replaceable", %"union.icu_77::UnicodeString::StackBufferOrFields" }
%"class.icu_77::Replaceable" = type { %"class.icu_77::UObject" }
%"union.icu_77::UnicodeString::StackBufferOrFields" = type { %struct.anon.0, [32 x i8] }
%struct.anon.0 = type { i16, i32, i32, ptr }
%struct.UText = type { i32, i32, i32, i32, i64, i32, i32, i64, i32, i32, ptr, ptr, ptr, ptr, ptr, ptr, ptr, ptr, i64, i32, i32, i64, i32, i32 }
%struct.anon = type { i16, [27 x i16] }

@_ZTVN6icu_777UObjectE = available_externally unnamed_addr constant { [5 x ptr] } { [5 x ptr] [ptr null, ptr @_ZTIN6icu_777UObjectE, ptr @_ZN6icu_777UObjectD1Ev, ptr @_ZN6icu_777UObjectD0Ev, ptr @_ZNK6icu_777UObject17getDynamicClassIDEv] }, align 8

; Function Attrs: inlinehint mustprogress nounwind uwtable
define linkonce_odr void @_ZN6icu_777UObjectC2Ev(ptr noundef nonnull align 8 dereferenceable(8) %0) unnamed_addr #2 comdat align 2 {
  %2 = alloca ptr, align 8
  store ptr %0, ptr %2, align 8, !tbaa !52
  %3 = load ptr, ptr %2, align 8
  store ptr getelementptr inbounds inrange(-16, 24) ({ [5 x ptr] }, ptr @_ZTVN6icu_777UObjectE, i32 0, i32 0, i32 2), ptr %3, align 8, !tbaa !27
  ret void
}

; Function Attrs: mustprogress nounwind uwtable
define void @_ZN6icu_7712RegexMatcher19resetPreserveRegionEv(ptr noundef nonnull align 8 dereferenceable(336) %0) #0 align 2 {
  %2 = alloca ptr, align 8
  store ptr %0, ptr %2, align 8, !tbaa !23
  %3 = load ptr, ptr %2, align 8
  %4 = getelementptr inbounds nuw %"class.icu_77::RegexMatcher", ptr %3, i32 0, i32 19
  store i64 0, ptr %4, align 8, !tbaa !67
  %5 = getelementptr inbounds nuw %"class.icu_77::RegexMatcher", ptr %3, i32 0, i32 20
  store i64 0, ptr %5, align 8, !tbaa !68
  %6 = getelementptr inbounds nuw %"class.icu_77::RegexMatcher", ptr %3, i32 0, i32 21
  store i64 -1, ptr %6, align 8, !tbaa !69
  %7 = getelementptr inbounds nuw %"class.icu_77::RegexMatcher", ptr %3, i32 0, i32 22
  store i64 0, ptr %7, align 8, !tbaa !70
  %8 = getelementptr inbounds nuw %"class.icu_77::RegexMatcher", ptr %3, i32 0, i32 18
  store i8 0, ptr %8, align 2, !tbaa !66
  %9 = getelementptr inbounds nuw %"class.icu_77::RegexMatcher", ptr %3, i32 0, i32 23
  store i8 0, ptr %9, align 8, !tbaa !71
  %10 = getelementptr inbounds nuw %"class.icu_77::RegexMatcher", ptr %3, i32 0, i32 24
  store i8 0, ptr %10, align 1, !tbaa !72
  %11 = getelementptr inbounds nuw %"class.icu_77::RegexMatcher", ptr %3, i32 0, i32 30
  store i32 0, ptr %11, align 4, !tbaa !76
  %12 = getelementptr inbounds nuw %"class.icu_77::RegexMatcher", ptr %3, i32 0, i32 31
  store i32 10000, ptr %12, align 8, !tbaa !77
  ret void
}

; Function Attrs: inlinehint mustprogress nounwind uwtable
define linkonce_odr void @_ZN6icu_7711ReplaceableC2Ev(ptr noundef nonnull align 8 dereferenceable(8) %0) unnamed_addr #2 comdat align 2 {
  %2 = alloca ptr, align 8
  store ptr %0, ptr %2, align 8, !tbaa !200
  %3 = load ptr, ptr %2, align 8
  call void @_ZN6icu_777UObjectC2Ev(ptr noundef nonnull align 8 dereferenceable(8) %3) #11
  store ptr getelementptr inbounds inrange(-16, 88) ({ [13 x ptr] }, ptr @_ZTVN6icu_7711ReplaceableE, i32 0, i32 0, i32 2), ptr %3, align 8, !tbaa !27
  ret void
}

; Function Attrs: mustprogress uwtable
define noundef signext i8 @_ZN6icu_7712RegexMatcher4findEv(ptr noundef nonnull align 8 dereferenceable(336) %0) unnamed_addr #1 align 2 {
  %2 = alloca i8, align 1
  %3 = alloca ptr, align 8
  %4 = alloca i32, align 4
  %5 = alloca i8, align 1
  store ptr %0, ptr %3, align 8, !tbaa !23
  %6 = load ptr, ptr %3, align 8
  %7 = getelementptr inbounds nuw %"class.icu_77::RegexMatcher", ptr %6, i32 0, i32 39
  %8 = load i32, ptr %7, align 4, !tbaa !29
  %9 = call noundef signext i8 @_ZL9U_FAILURE10UErrorCode(i32 noundef %8)
  %10 = icmp ne i8 %9, 0
  br i1 %10, label %11, label %12

11:                                               ; preds = %1
  store i8 0, ptr %2, align 1
  br label %15

12:                                               ; preds = %1
  call void @llvm.lifetime.start.p0(i64 4, ptr %4) #11
  store i32 0, ptr %4, align 4, !tbaa !15
  call void @llvm.lifetime.start.p0(i64 1, ptr %5) #11
  %13 = call noundef signext i8 @_ZN6icu_7712RegexMatcher4findER10UErrorCode(ptr noundef nonnull align 8 dereferenceable(336) %6, ptr noundef nonnull align 4 dereferenceable(4) %4)
  store i8 %13, ptr %5, align 1, !tbaa !126
  %14 = load i8, ptr %5, align 1, !tbaa !126
  store i8 %14, ptr %2, align 1
  call void @llvm.lifetime.end.p0(i64 1, ptr %5) #11
  call void @llvm.lifetime.end.p0(i64 4, ptr %4) #11
  br label %15

15:                                               ; preds = %12, %11
  %16 = load i8, ptr %2, align 1
  ret i8 %16
}

; Function Attrs: mustprogress uwtable
define noundef nonnull align 8 dereferenceable(336) ptr @_ZN6icu_7712RegexMatcher5resetEv(ptr noundef nonnull align 8 dereferenceable(336) %0) unnamed_addr #1 align 2 {
  %2 = alloca ptr, align 8
  store ptr %0, ptr %2, align 8, !tbaa !23
  %3 = load ptr, ptr %2, align 8
  %4 = getelementptr inbounds nuw %"class.icu_77::RegexMatcher", ptr %3, i32 0, i32 8
  store i64 0, ptr %4, align 8, !tbaa !56
  %5 = getelementptr inbounds nuw %"class.icu_77::RegexMatcher", ptr %3, i32 0, i32 6
  %6 = load i64, ptr %5, align 8, !tbaa !90
  %7 = getelementptr inbounds nuw %"class.icu_77::RegexMatcher", ptr %3, i32 0, i32 9
  store i64 %6, ptr %7, align 8, !tbaa !57
  %8 = getelementptr inbounds nuw %"class.icu_77::RegexMatcher", ptr %3, i32 0, i32 14
  store i64 0, ptr %8, align 8, !tbaa !62
  %9 = getelementptr inbounds nuw %"class.icu_77::RegexMatcher", ptr %3, i32 0, i32 6
  %10 = load i64, ptr %9, align 8, !tbaa !90
  %11 = getelementptr inbounds nuw %"class.icu_77::RegexMatcher", ptr %3, i32 0, i32 15
  store i64 %10, ptr %11, align 8, !tbaa !63
  %12 = getelementptr inbounds nuw %"class.icu_77::RegexMatcher", ptr %3, i32 0, i32 10
  store i64 0, ptr %12, align 8, !tbaa !58
  %13 = getelementptr inbounds nuw %"class.icu_77::RegexMatcher", ptr %3, i32 0, i32 6
  %14 = load i64, ptr %13, align 8, !tbaa !90
  %15 = getelementptr inbounds nuw %"class.icu_77::RegexMatcher", ptr %3, i32 0, i32 11
  store i64 %14, ptr %15, align 8, !tbaa !59
  %16 = getelementptr inbounds nuw %"class.icu_77::RegexMatcher", ptr %3, i32 0, i32 12
  store i64 0, ptr %16, align 8, !tbaa !60
  %17 = getelementptr inbounds nuw %"class.icu_77::RegexMatcher", ptr %3, i32 0, i32 6
  %18 = load i64, ptr %17, align 8, !tbaa !90
  %19 = getelementptr inbounds nuw %"class.icu_77::RegexMatcher", ptr %3, i32 0, i32 13
  store i64 %18, ptr %19, align 8, !tbaa !61
  call void @_ZN6icu_7712RegexMatcher19resetPreserveRegionEv(ptr noundef nonnull align 8 dereferenceable(336) %3)
  ret ptr %3
}

; Function Attrs: inlinehint mustprogress nounwind uwtable
define internal noundef signext i8 @_ZL9U_SUCCESS10UErrorCode(i32 noundef %0) #2 {
  %2 = alloca i32, align 4
  store i32 %0, ptr %2, align 4, !tbaa !15
  %3 = load i32, ptr %2, align 4, !tbaa !15
  %4 = icmp sle i32 %3, 0
  %5 = zext i1 %4 to i8
  ret i8 %5
}

; Function Attrs: inlinehint mustprogress uwtable
define linkonce_odr void @_ZN6icu_7713UnicodeStringC2Ev(ptr noundef nonnull align 8 dereferenceable(64) %0) unnamed_addr #3 comdat align 2 {
  %2 = alloca ptr, align 8
  store ptr %0, ptr %2, align 8, !tbaa !100
  %3 = load ptr, ptr %2, align 8
  call void @_ZN6icu_7711ReplaceableC2Ev(ptr noundef nonnull align 8 dereferenceable(8) %3)
  store ptr getelementptr inbounds inrange(-16, 88) ({ [13 x ptr] }, ptr @_ZTVN6icu_7713UnicodeStringE, i32 0, i32 0, i32 2), ptr %3, align 8, !tbaa !27
  %4 = getelementptr inbounds nuw %"class.icu_77::UnicodeString", ptr %3, i32 0, i32 1
  %5 = getelementptr inbounds nuw %struct.anon, ptr %4, i32 0, i32 0
  store i16 2, ptr %5, align 8, !tbaa !126
  ret void
}

; Function Attrs: inlinehint mustprogress nounwind uwtable
define internal noundef signext i8 @_ZL9U_FAILURE10UErrorCode(i32 noundef %0) #2 {
  %2 = alloca i32, align 4
  store i32 %0, ptr %2, align 4, !tbaa !15
  %3 = load i32, ptr %2, align 4, !tbaa !15
  %4 = icmp sgt i32 %3, 0
  %5 = zext i1 %4 to i8
  ret i8 %5
}

; Function Attrs: mustprogress uwtable
define noundef ptr @_ZN6icu_7712RegexMatcher10replaceAllEP5UTextS2_R10UErrorCode(ptr noundef nonnull align 8 dereferenceable(336) %0, ptr noundef %1, ptr noundef %2, ptr noundef nonnull align 4 dereferenceable(4) %3) unnamed_addr #1 align 2 personality ptr @__gxx_personality_v0 {
  %5 = alloca ptr, align 8
  %6 = alloca ptr, align 8
  %7 = alloca ptr, align 8
  %8 = alloca ptr, align 8
  %9 = alloca ptr, align 8
  %10 = alloca %"class.icu_77::UnicodeString", align 8
  %11 = alloca %struct.UText, align 8
  %12 = alloca ptr, align 8
  %13 = alloca i32, align 4
  store ptr %0, ptr %6, align 8, !tbaa !23
  store ptr %1, ptr %7, align 8, !tbaa !92
  store ptr %2, ptr %8, align 8, !tbaa !92
  store ptr %3, ptr %9, align 8, !tbaa !22
  %14 = load ptr, ptr %6, align 8
  %15 = load ptr, ptr %9, align 8, !tbaa !22
  %16 = load i32, ptr %15, align 4, !tbaa !15
  %17 = call noundef signext i8 @_ZL9U_FAILURE10UErrorCode(i32 noundef %16)
  %18 = icmp ne i8 %17, 0
  br i1 %18, label %19, label %21

19:                                               ; preds = %4
  %20 = load ptr, ptr %8, align 8, !tbaa !92
  store ptr %20, ptr %5, align 8
  br label %76

21:                                               ; preds = %4
  %22 = getelementptr inbounds nuw %"class.icu_77::RegexMatcher", ptr %14, i32 0, i32 39
  %23 = load i32, ptr %22, align 4, !tbaa !29
  %24 = call noundef signext i8 @_ZL9U_FAILURE10UErrorCode(i32 noundef %23)
  %25 = icmp ne i8 %24, 0
  br i1 %25, label %26, label %31

26:                                               ; preds = %21
  %27 = getelementptr inbounds nuw %"class.icu_77::RegexMatcher", ptr %14, i32 0, i32 39
  %28 = load i32, ptr %27, align 4, !tbaa !29
  %29 = load ptr, ptr %9, align 8, !tbaa !22
  store i32 %28, ptr %29, align 4, !tbaa !15
  %30 = load ptr, ptr %8, align 8, !tbaa !92
  store ptr %30, ptr %5, align 8
  br label %76

31:                                               ; preds = %21
  %32 = load ptr, ptr %8, align 8, !tbaa !92
  %33 = icmp eq ptr %32, null
  br i1 %33, label %34, label %49

34:                                               ; preds = %31
  call void @llvm.lifetime.start.p0(i64 64, ptr %10) #11
  call void @_ZN6icu_7713UnicodeStringC2Ev(ptr noundef nonnull align 8 dereferenceable(64) %10)
  call void @llvm.lifetime.start.p0(i64 144, ptr %11) #11
  call void @llvm.memset.p0.i64(ptr align 8 %11, i8 0, i64 144, i1 false)
  %35 = getelementptr inbounds %struct.UText, ptr %11, i32 0, i32 0
  store i32 878368812, ptr %35, align 8
  %36 = getelementptr inbounds %struct.UText, ptr %11, i32 0, i32 3
  store i32 144, ptr %36, align 4
  %37 = load ptr, ptr %9, align 8, !tbaa !22
  %38 = invoke ptr @utext_openUnicodeString_77(ptr noundef %11, ptr noundef %10, ptr noundef %37)
          to label %39 unwind label %45

39:                                               ; preds = %34
  %40 = load ptr, ptr %9, align 8, !tbaa !22
  %41 = invoke ptr @utext_clone_77(ptr noundef null, ptr noundef %11, i8 noundef signext 1, i8 noundef signext 0, ptr noundef %40)
          to label %42 unwind label %45

42:                                               ; preds = %39
  store ptr %41, ptr %8, align 8, !tbaa !92
  %43 = invoke ptr @utext_close_77(ptr noundef %11)
          to label %44 unwind label %45

44:                                               ; preds = %42
  call void @llvm.lifetime.end.p0(i64 144, ptr %11) #11
  call void @_ZN6icu_7713UnicodeStringD1Ev(ptr noundef nonnull align 8 dereferenceable(64) %10) #11
  call void @llvm.lifetime.end.p0(i64 64, ptr %10) #11
  br label %49

45:                                               ; preds = %42, %39, %34
  %46 = landingpad { ptr, i32 }
          cleanup
  %47 = extractvalue { ptr, i32 } %46, 0
  store ptr %47, ptr %12, align 8
  %48 = extractvalue { ptr, i32 } %46, 1
  store i32 %48, ptr %13, align 4
  call void @llvm.lifetime.end.p0(i64 144, ptr %11) #11
  call void @_ZN6icu_7713UnicodeStringD1Ev(ptr noundef nonnull align 8 dereferenceable(64) %10) #11
  call void @llvm.lifetime.end.p0(i64 64, ptr %10) #11
  br label %78

49:                                               ; preds = %44, %31
  %50 = load ptr, ptr %9, align 8, !tbaa !22
  %51 = load i32, ptr %50, align 4, !tbaa !15
  %52 = call noundef signext i8 @_ZL9U_SUCCESS10UErrorCode(i32 noundef %51)
  %53 = icmp ne i8 %52, 0
  br i1 %53, label %54, label %74

54:                                               ; preds = %49
  %55 = call noundef nonnull align 8 dereferenceable(336) ptr @_ZN6icu_7712RegexMatcher5resetEv(ptr noundef nonnull align 8 dereferenceable(336) %14)
  br label %56

56:                                               ; preds = %69, %54
  %57 = call noundef signext i8 @_ZN6icu_7712RegexMatcher4findEv(ptr noundef nonnull align 8 dereferenceable(336) %14)
  %58 = icmp ne i8 %57, 0
  br i1 %58, label %59, label %70

59:                                               ; preds = %56
  %60 = load ptr, ptr %8, align 8, !tbaa !92
  %61 = load ptr, ptr %7, align 8, !tbaa !92
  %62 = load ptr, ptr %9, align 8, !tbaa !22
  %63 = call noundef nonnull align 8 dereferenceable(336) ptr @_ZN6icu_7712RegexMatcher17appendReplacementEP5UTextS2_R10UErrorCode(ptr noundef nonnull align 8 dereferenceable(336) %14, ptr noundef %60, ptr noundef %61, ptr noundef nonnull align 4 dereferenceable(4) %62)
  %64 = load ptr, ptr %9, align 8, !tbaa !22
  %65 = load i32, ptr %64, align 4, !tbaa !15
  %66 = call noundef signext i8 @_ZL9U_FAILURE10UErrorCode(i32 noundef %65)
  %67 = icmp ne i8 %66, 0
  br i1 %67, label %68, label %69

68:                                               ; preds = %59
  br label %70

69:                                               ; preds = %59
  br label %56, !llvm.loop !182

70:                                               ; preds = %68, %56
  %71 = load ptr, ptr %8, align 8, !tbaa !92
  %72 = load ptr, ptr %9, align 8, !tbaa !22
  %73 = call noundef ptr @_ZN6icu_7712RegexMatcher10appendTailEP5UTextR10UErrorCode(ptr noundef nonnull align 8 dereferenceable(336) %14, ptr noundef %71, ptr noundef nonnull align 4 dereferenceable(4) %72)
  br label %74

74:                                               ; preds = %70, %49
  %75 = load ptr, ptr %8, align 8, !tbaa !92
  store ptr %75, ptr %5, align 8
  br label %76

76:                                               ; preds = %74, %26, %19
  %77 = load ptr, ptr %5, align 8
  ret ptr %77

78:                                               ; preds = %45
  %79 = load ptr, ptr %12, align 8
  %80 = load i32, ptr %13, align 4
  %81 = insertvalue { ptr, i32 } poison, ptr %79, 0
  %82 = insertvalue { ptr, i32 } %81, i32 %80, 1
  resume { ptr, i32 } %82
}