; Function Attrs: mustprogress uwtable
define noundef ptr @_ZN6icu_7712RegexMatcher10replaceAllEP5UTextS2_R10UErrorCode(ptr noundef nonnull align 8 dereferenceable(336) %0, ptr noundef %1, ptr noundef %2, ptr noundef nonnull align 4 dereferenceable(4) %3) unnamed_addr #1 align 2 personality ptr @__gxx_personality_v0 {
  %5 = alloca i32, align 4
  %6 = alloca %"class.icu_77::UnicodeString", align 8
  %7 = alloca %struct.UText, align 8
  %8 = load i32, ptr %3, align 4, !tbaa !13
  %9 = icmp slt i32 %8, 1
  br i1 %9, label %10, label %55

10:                                               ; preds = %4
  %11 = getelementptr inbounds nuw i8, ptr %0, i64 316
  %12 = load i32, ptr %11, align 4, !tbaa !39
  %13 = icmp slt i32 %12, 1
  br i1 %13, label %15, label %14

14:                                               ; preds = %10
  store i32 %12, ptr %3, align 4, !tbaa !13
  br label %55

15:                                               ; preds = %10
  %16 = icmp eq ptr %2, null
  br i1 %16, label %17, label %.thread

17:                                               ; preds = %15
  call void @llvm.lifetime.start.p0(i64 64, ptr nonnull %6) #21
  store ptr getelementptr inbounds nuw inrange(-16, 88) (i8, ptr @_ZTVN6icu_7713UnicodeStringE, i64 16), ptr %6, align 8, !tbaa !15
  %18 = getelementptr inbounds nuw i8, ptr %6, i64 8
  store i16 2, ptr %18, align 8, !tbaa !100
  call void @llvm.lifetime.start.p0(i64 144, ptr nonnull %7) #21
  call void @llvm.memset.p0.i64(ptr noundef nonnull align 8 dereferenceable(144) %7, i8 0, i64 144, i1 false)
  store i32 878368812, ptr %7, align 8
  %19 = getelementptr inbounds nuw i8, ptr %7, i64 12
  store i32 144, ptr %19, align 4
  %20 = invoke ptr @utext_openUnicodeString_77(ptr noundef nonnull %7, ptr noundef nonnull %6, ptr noundef nonnull %3)
          to label %21 unwind label %25

21:                                               ; preds = %17
  %22 = invoke ptr @utext_clone_77(ptr noundef null, ptr noundef nonnull %7, i8 noundef signext 1, i8 noundef signext 0, ptr noundef nonnull %3)
          to label %23 unwind label %25

23:                                               ; preds = %21
  %24 = invoke ptr @utext_close_77(ptr noundef nonnull %7)
          to label %27 unwind label %25

25:                                               ; preds = %23, %21, %17
  %26 = landingpad { ptr, i32 }
          cleanup
  call void @llvm.lifetime.end.p0(i64 144, ptr nonnull %7) #21
  call void @_ZN6icu_7713UnicodeStringD1Ev(ptr noundef nonnull align 8 dereferenceable(64) %6) #21
  call void @llvm.lifetime.end.p0(i64 64, ptr nonnull %6) #21
  resume { ptr, i32 } %26

27:                                               ; preds = %23
  call void @llvm.lifetime.end.p0(i64 144, ptr nonnull %7) #21
  call void @_ZN6icu_7713UnicodeStringD1Ev(ptr noundef nonnull align 8 dereferenceable(64) %6) #21
  call void @llvm.lifetime.end.p0(i64 64, ptr nonnull %6) #21
  %.pre = load i32, ptr %3, align 4, !tbaa !13
  %28 = icmp sgt i32 %.pre, 0
  br i1 %28, label %55, label %.thread

.thread:                                          ; preds = %15, %27
  %.01828 = phi ptr [ %22, %27 ], [ %2, %15 ]
  %29 = getelementptr inbounds nuw i8, ptr %0, i64 64
  store i64 0, ptr %29, align 8, !tbaa !65
  %30 = getelementptr inbounds nuw i8, ptr %0, i64 48
  %31 = load i64, ptr %30, align 8, !tbaa !66
  %32 = getelementptr inbounds nuw i8, ptr %0, i64 72
  store i64 %31, ptr %32, align 8, !tbaa !67
  %33 = getelementptr inbounds nuw i8, ptr %0, i64 112
  store i64 0, ptr %33, align 8, !tbaa !68
  %34 = getelementptr inbounds nuw i8, ptr %0, i64 120
  store i64 %31, ptr %34, align 8, !tbaa !69
  %35 = getelementptr inbounds nuw i8, ptr %0, i64 80
  store i64 0, ptr %35, align 8, !tbaa !70
  %36 = getelementptr inbounds nuw i8, ptr %0, i64 88
  store i64 %31, ptr %36, align 8, !tbaa !71
  %37 = getelementptr inbounds nuw i8, ptr %0, i64 96
  store i64 0, ptr %37, align 8, !tbaa !72
  %38 = getelementptr inbounds nuw i8, ptr %0, i64 104
  store i64 %31, ptr %38, align 8, !tbaa !73
  %39 = getelementptr inbounds nuw i8, ptr %0, i64 136
  %40 = getelementptr inbounds nuw i8, ptr %0, i64 152
  call void @llvm.memset.p0.i64(ptr noundef nonnull align 8 dereferenceable(16) %39, i8 0, i64 16, i1 false)
  store i64 -1, ptr %40, align 8, !tbaa !30
  %41 = getelementptr inbounds nuw i8, ptr %0, i64 160
  store i64 0, ptr %41, align 8, !tbaa !31
  %42 = getelementptr inbounds nuw i8, ptr %0, i64 130
  store i8 0, ptr %42, align 2, !tbaa !29
  %43 = getelementptr inbounds nuw i8, ptr %0, i64 168
  store i8 0, ptr %43, align 8, !tbaa !32
  %44 = getelementptr inbounds nuw i8, ptr %0, i64 169
  store i8 0, ptr %44, align 1, !tbaa !33
  %45 = getelementptr inbounds nuw i8, ptr %0, i64 268
  store i32 0, ptr %45, align 4, !tbaa !35
  %46 = getelementptr inbounds nuw i8, ptr %0, i64 272
  store i32 10000, ptr %46, align 8, !tbaa !36
  %.old = load i32, ptr %11, align 4, !tbaa !39
  %.old26 = icmp slt i32 %.old, 1
  br i1 %.old26, label %_ZN6icu_7712RegexMatcher4findEv.exit, label %_ZN6icu_7712RegexMatcher4findEv.exit.thread

_ZN6icu_7712RegexMatcher4findEv.exit:             ; preds = %.thread, %48
  call void @llvm.lifetime.start.p0(i64 4, ptr nonnull %5) #21
  store i32 0, ptr %5, align 4, !tbaa !13
  %47 = call noundef signext i8 @_ZN6icu_7712RegexMatcher4findER10UErrorCode(ptr noundef nonnull align 8 dereferenceable(336) %0, ptr noundef nonnull align 4 dereferenceable(4) %5)
  call void @llvm.lifetime.end.p0(i64 4, ptr nonnull %5) #21
  %.not22 = icmp eq i8 %47, 0
  br i1 %.not22, label %_ZN6icu_7712RegexMatcher4findEv.exit.thread, label %48

48:                                               ; preds = %_ZN6icu_7712RegexMatcher4findEv.exit
  %49 = call noundef nonnull align 8 dereferenceable(336) ptr @_ZN6icu_7712RegexMatcher17appendReplacementEP5UTextS2_R10UErrorCode(ptr noundef nonnull align 8 dereferenceable(336) %0, ptr noundef %.01828, ptr noundef %1, ptr noundef nonnull align 4 dereferenceable(4) %3)
  %50 = load i32, ptr %3, align 4, !tbaa !13
  %51 = icmp slt i32 %50, 1
  %52 = load i32, ptr %11, align 4
  %53 = icmp slt i32 %52, 1
  %or.cond = select i1 %51, i1 %53, i1 false
  br i1 %or.cond, label %_ZN6icu_7712RegexMatcher4findEv.exit, label %_ZN6icu_7712RegexMatcher4findEv.exit.thread, !llvm.loop !156

_ZN6icu_7712RegexMatcher4findEv.exit.thread:      ; preds = %48, %_ZN6icu_7712RegexMatcher4findEv.exit, %.thread
  %54 = call noundef ptr @_ZN6icu_7712RegexMatcher10appendTailEP5UTextR10UErrorCode(ptr noundef nonnull align 8 dereferenceable(336) %0, ptr noundef %.01828, ptr noundef nonnull align 4 dereferenceable(4) %3)
  br label %55

55:                                               ; preds = %27, %_ZN6icu_7712RegexMatcher4findEv.exit.thread, %4, %14
  %.0 = phi ptr [ %2, %14 ], [ %2, %4 ], [ %.01828, %_ZN6icu_7712RegexMatcher4findEv.exit.thread ], [ %22, %27 ]
  ret ptr %.0
}